; Function Attrs: mustprogress uwtable
define void @_ZN6casadi14SerializerBase4packERKSt6vectorIxSaIxEE(ptr nocapture noundef nonnull readonly align 8 dereferenceable(16) %0, ptr nocapture noundef nonnull readonly align 8 dereferenceable(24) %1) local_unnamed_addr #3 align 2 {
  %3 = getelementptr inbounds i8, ptr %0, i64 8
  %4 = load ptr, ptr %3, align 8
  tail call void @_ZN6casadi17SerializingStream4packEc(ptr noundef nonnull align 8 dereferenceable(73) %4, i8 noundef signext 17)
  %5 = load ptr, ptr %3, align 8
  tail call void @_ZN6casadi17SerializingStream8decorateEc(ptr noundef nonnull align 8 dereferenceable(73) %5, i8 noundef signext 86)
  %6 = getelementptr inbounds i8, ptr %1, i64 8
  %7 = load ptr, ptr %6, align 8
  %8 = load ptr, ptr %1, align 8
  %9 = ptrtoint ptr %7 to i64
  %10 = ptrtoint ptr %8 to i64
  %11 = sub i64 %9, %10
  %12 = ashr exact i64 %11, 3
  tail call void @_ZN6casadi17SerializingStream4packEx(ptr noundef nonnull align 8 dereferenceable(73) %5, i64 noundef %12)
  %13 = load ptr, ptr %1, align 8
  %14 = load ptr, ptr %6, align 8
  %.not9.i = icmp eq ptr %13, %14
  br i1 %.not9.i, label %_ZN6casadi17SerializingStream4packIxEEvRKSt6vectorIT_SaIS3_EE.exit, label %.lr.ph.i

.lr.ph.i:                                         ; preds = %2, %.lr.ph.i
  %.sroa.06.010.i = phi ptr [ %16, %.lr.ph.i ], [ %13, %2 ]
  %15 = load i64, ptr %.sroa.06.010.i, align 8
  tail call void @_ZN6casadi17SerializingStream4packEx(ptr noundef nonnull align 8 dereferenceable(73) %5, i64 noundef %15)
  %16 = getelementptr inbounds i8, ptr %.sroa.06.010.i, i64 8
  %.not.i = icmp eq ptr %16, %14
  br i1 %.not.i, label %_ZN6casadi17SerializingStream4packIxEEvRKSt6vectorIT_SaIS3_EE.exit, label %.lr.ph.i

_ZN6casadi17SerializingStream4packIxEEvRKSt6vectorIT_SaIS3_EE.exit: ; preds = %.lr.ph.i, %2
  ret void
}